target datalayout = "e-m:e-p270:32:32-p271:32:32-p272:64:64-i64:64-i128:128-f80:128-n8:16:32:64-S128"
target triple = "x86_64-pc-linux-gnu"

; Function Attrs: inlinehint nounwind uwtable
define internal i32 @op_n(i32 noundef %0) #3 {
  %2 = alloca i32, align 4
  store i32 %0, ptr %2, align 4, !tbaa !18
  %3 = load i32, ptr %2, align 4, !tbaa !18
  %4 = icmp slt i32 %3, 0
  br i1 %4, label %5, label %8

5:                                                ; preds = %1
  %6 = load i32, ptr %2, align 4, !tbaa !18
  %7 = sub nsw i32 0, %6
  br label %10

8:                                                ; preds = %1
  %9 = load i32, ptr %2, align 4, !tbaa !18
  br label %10

10:                                               ; preds = %8, %5
  %11 = phi i32 [ %7, %5 ], [ %9, %8 ]
  ret i32 %11
}

; Function Attrs: nounwind uwtable
define internal zeroext i8 @ar_plural_fn(i32 noundef %0) #0 {
  %2 = alloca i8, align 1
  %3 = alloca i32, align 4
  %4 = alloca i32, align 4
  %5 = alloca i32, align 4
  %6 = alloca i32, align 4
  store i32 %0, ptr %3, align 4, !tbaa !18
  call void @llvm.lifetime.start.p0(i64 4, ptr %4) #4
  %7 = load i32, ptr %3, align 4, !tbaa !18
  %8 = call i32 @op_n(i32 noundef %7)
  store i32 %8, ptr %4, align 4, !tbaa !18
  call void @llvm.lifetime.start.p0(i64 4, ptr %5) #4
  %9 = load i32, ptr %4, align 4, !tbaa !18
  %10 = urem i32 %9, 100
  store i32 %10, ptr %5, align 4, !tbaa !18
  %11 = load i32, ptr %4, align 4, !tbaa !18
  %12 = icmp eq i32 %11, 0
  br i1 %12, label %13, label %14

13:                                               ; preds = %1
  store i8 0, ptr %2, align 1
  store i32 1, ptr %6, align 4
  br label %37

14:                                               ; preds = %1
  %15 = load i32, ptr %4, align 4, !tbaa !18
  %16 = icmp eq i32 %15, 1
  br i1 %16, label %17, label %18

17:                                               ; preds = %14
  store i8 1, ptr %2, align 1
  store i32 1, ptr %6, align 4
  br label %37

18:                                               ; preds = %14
  %19 = load i32, ptr %4, align 4, !tbaa !18
  %20 = icmp eq i32 %19, 2
  br i1 %20, label %21, label %22

21:                                               ; preds = %18
  store i8 2, ptr %2, align 1
  store i32 1, ptr %6, align 4
  br label %37

22:                                               ; preds = %18
  %23 = load i32, ptr %5, align 4, !tbaa !18
  %24 = icmp ule i32 3, %23
  br i1 %24, label %25, label %29

25:                                               ; preds = %22
  %26 = load i32, ptr %5, align 4, !tbaa !18
  %27 = icmp ule i32 %26, 10
  br i1 %27, label %28, label %29

28:                                               ; preds = %25
  store i8 3, ptr %2, align 1
  store i32 1, ptr %6, align 4
  br label %37

29:                                               ; preds = %25, %22
  %30 = load i32, ptr %5, align 4, !tbaa !18
  %31 = icmp ule i32 11, %30
  br i1 %31, label %32, label %36

32:                                               ; preds = %29
  %33 = load i32, ptr %5, align 4, !tbaa !18
  %34 = icmp ule i32 %33, 99
  br i1 %34, label %35, label %36

35:                                               ; preds = %32
  store i8 4, ptr %2, align 1
  store i32 1, ptr %6, align 4
  br label %37

36:                                               ; preds = %32, %29
  store i8 5, ptr %2, align 1
  store i32 1, ptr %6, align 4
  br label %37

37:                                               ; preds = %36, %35, %28, %21, %17, %13
  call void @llvm.lifetime.end.p0(i64 4, ptr %5) #4
  call void @llvm.lifetime.end.p0(i64 4, ptr %4) #4
  %38 = load i8, ptr %2, align 1
  ret i8 %38
}