; Function Attrs: mustprogress nofree norecurse nosync nounwind willreturn memory(none) uwtable
define internal zeroext range(i8 0, 6) i8 @ar_plural_fn(i32 noundef %0) #5 {
  %2 = tail call range(i32 0, -2147483648) i32 @llvm.abs.i32(i32 %0, i1 true)
  %3 = urem i32 %2, 100
  %4 = icmp samesign ult i32 %2, 3
  br i1 %4, label %switch.lookup, label %5

5:                                                ; preds = %1
  %6 = add nsw i32 %3, -3
  %or.cond = icmp ult i32 %6, 8
  br i1 %or.cond, label %9, label %7

7:                                                ; preds = %5
  %8 = icmp samesign ugt i32 %3, 10
  %. = select i1 %8, i8 4, i8 5
  br label %9

switch.lookup:                                    ; preds = %1
  %switch.idx.cast = trunc nuw i32 %2 to i8
  br label %9

9:                                                ; preds = %switch.lookup, %7, %5
  %.0 = phi i8 [ 3, %5 ], [ %., %7 ], [ %switch.idx.cast, %switch.lookup ]
  ret i8 %.0
}